target datalayout = "e-m:e-p270:32:32-p271:32:32-p272:64:64-i64:64-f80:128-n8:16:32:64-S128"
target triple = "x86_64-pc-linux-gnu"

@.str = private unnamed_addr constant [3 x i8] c"%d\00", align 1
@.str.1 = private unnamed_addr constant [3 x i8] c"%s\00", align 1
@.str.2 = private unnamed_addr constant [2 x i8] c"\0A\00", align 1

; Function Attrs: noinline nounwind uwtable
define dso_local i32 @main() #0 {
  %1 = alloca i32, align 4
  %2 = alloca i32, align 4
  %3 = alloca [1000 x i8], align 16
  %4 = alloca [1000 x i8], align 16
  %5 = alloca [1000 x i32], align 16
  %6 = alloca [1000 x i32], align 16
  %7 = alloca i32, align 4
  %8 = alloca i32, align 4
  %9 = alloca i32, align 4
  store i32 0, i32* %1, align 4
  %10 = call i32 (i8*, ...) @__isoc99_scanf(i8* getelementptr inbounds ([3 x i8], [3 x i8]* @.str, i64 0, i64 0), i32* %2)
  br label %11

11:                                               ; preds = %146, %0
  %12 = load i32, i32* %2, align 4
  %13 = add nsw i32 %12, -1
  store i32 %13, i32* %2, align 4
  %14 = icmp ne i32 %12, 0
  br i1 %14, label %15, label %147

15:                                               ; preds = %11
  %16 = bitcast [1000 x i32]* %5 to i8*
  call void @llvm.memset.p0i8.i64(i8* align 16 %16, i8 0, i64 4000, i1 false)
  %17 = bitcast [1000 x i32]* %6 to i8*
  call void @llvm.memset.p0i8.i64(i8* align 16 %17, i8 0, i64 4000, i1 false)
  %18 = call i32 (i8*, ...) @__isoc99_scanf(i8* getelementptr inbounds ([3 x i8], [3 x i8]* @.str.1, i64 0, i64 0), [1000 x i8]* %3)
  %19 = call i32 (i8*, ...) @__isoc99_scanf(i8* getelementptr inbounds ([3 x i8], [3 x i8]* @.str.1, i64 0, i64 0), [1000 x i8]* %4)
  store i32 0, i32* %8, align 4
  %20 = getelementptr inbounds [1000 x i8], [1000 x i8]* %3, i64 0, i64 0
  %21 = call i64 @strlen(i8* %20) #4
  %22 = sub i64 %21, 1
  %23 = trunc i64 %22 to i32
  store i32 %23, i32* %7, align 4
  br label %24

24:                                               ; preds = %39, %15
  %25 = load i32, i32* %7, align 4
  %26 = icmp sge i32 %25, 0
  br i1 %26, label %27, label %42

27:                                               ; preds = %24
  %28 = load i32, i32* %7, align 4
  %29 = sext i32 %28 to i64
  %30 = getelementptr inbounds [1000 x i8], [1000 x i8]* %3, i64 0, i64 %29
  %31 = load i8, i8* %30, align 1
  %32 = sext i8 %31 to i32
  %33 = sub nsw i32 %32, 48
  %34 = load i32, i32* %8, align 4
  %35 = sext i32 %34 to i64
  %36 = getelementptr inbounds [1000 x i32], [1000 x i32]* %5, i64 0, i64 %35
  store i32 %33, i32* %36, align 4
  %37 = load i32, i32* %8, align 4
  %38 = add nsw i32 %37, 1
  store i32 %38, i32* %8, align 4
  br label %39

39:                                               ; preds = %27
  %40 = load i32, i32* %7, align 4
  %41 = add nsw i32 %40, -1
  store i32 %41, i32* %7, align 4
  br label %24

42:                                               ; preds = %24
  store i32 0, i32* %8, align 4
  %43 = getelementptr inbounds [1000 x i8], [1000 x i8]* %4, i64 0, i64 0
  %44 = call i64 @strlen(i8* %43) #4
  %45 = sub i64 %44, 1
  %46 = trunc i64 %45 to i32
  store i32 %46, i32* %7, align 4
  br label %47

47:                                               ; preds = %62, %42
  %48 = load i32, i32* %7, align 4
  %49 = icmp sge i32 %48, 0
  br i1 %49, label %50, label %65

50:                                               ; preds = %47
  %51 = load i32, i32* %7, align 4
  %52 = sext i32 %51 to i64
  %53 = getelementptr inbounds [1000 x i8], [1000 x i8]* %4, i64 0, i64 %52
  %54 = load i8, i8* %53, align 1
  %55 = sext i8 %54 to i32
  %56 = sub nsw i32 %55, 48
  %57 = load i32, i32* %8, align 4
  %58 = sext i32 %57 to i64
  %59 = getelementptr inbounds [1000 x i32], [1000 x i32]* %6, i64 0, i64 %58
  store i32 %56, i32* %59, align 4
  %60 = load i32, i32* %8, align 4
  %61 = add nsw i32 %60, 1
  store i32 %61, i32* %8, align 4
  br label %62

62:                                               ; preds = %50
  %63 = load i32, i32* %7, align 4
  %64 = add nsw i32 %63, -1
  store i32 %64, i32* %7, align 4
  br label %47

65:                                               ; preds = %47
  store i32 0, i32* %7, align 4
  br label %66

66:                                               ; preds = %106, %65
  %67 = load i32, i32* %7, align 4
  %68 = sext i32 %67 to i64
  %69 = getelementptr inbounds [1000 x i8], [1000 x i8]* %3, i64 0, i64 0
  %70 = call i64 @strlen(i8* %69) #4
  %71 = icmp ult i64 %68, %70
  br i1 %71, label %72, label %109

72:                                               ; preds = %66
  %73 = load i32, i32* %7, align 4
  %74 = sext i32 %73 to i64
  %75 = getelementptr inbounds [1000 x i32], [1000 x i32]* %5, i64 0, i64 %74
  %76 = load i32, i32* %75, align 4
  %77 = load i32, i32* %7, align 4
  %78 = sext i32 %77 to i64
  %79 = getelementptr inbounds [1000 x i32], [1000 x i32]* %6, i64 0, i64 %78
  %80 = load i32, i32* %79, align 4
  %81 = sub nsw i32 %76, %80
  %82 = load i32, i32* %7, align 4
  %83 = sext i32 %82 to i64
  %84 = getelementptr inbounds [1000 x i32], [1000 x i32]* %5, i64 0, i64 %83
  store i32 %81, i32* %84, align 4
  %85 = load i32, i32* %7, align 4
  %86 = sext i32 %85 to i64
  %87 = getelementptr inbounds [1000 x i32], [1000 x i32]* %5, i64 0, i64 %86
  %88 = load i32, i32* %87, align 4
  %89 = icmp slt i32 %88, 0
  br i1 %89, label %90, label %105

90:                                               ; preds = %72
  %91 = load i32, i32* %7, align 4
  %92 = sext i32 %91 to i64
  %93 = getelementptr inbounds [1000 x i32], [1000 x i32]* %5, i64 0, i64 %92
  %94 = load i32, i32* %93, align 4
  %95 = add nsw i32 %94, 10
  %96 = load i32, i32* %7, align 4
  %97 = sext i32 %96 to i64
  %98 = getelementptr inbounds [1000 x i32], [1000 x i32]* %5, i64 0, i64 %97
  store i32 %95, i32* %98, align 4
  %99 = load i32, i32* %7, align 4
  %100 = add nsw i32 %99, 1
  %101 = sext i32 %100 to i64
  %102 = getelementptr inbounds [1000 x i32], [1000 x i32]* %5, i64 0, i64 %101
  %103 = load i32, i32* %102, align 4
  %104 = add nsw i32 %103, -1
  store i32 %104, i32* %102, align 4
  br label %105

105:                                              ; preds = %90, %72
  br label %106

106:                                              ; preds = %105
  %107 = load i32, i32* %7, align 4
  %108 = add nsw i32 %107, 1
  store i32 %108, i32* %7, align 4
  br label %66

109:                                              ; preds = %66
  store i32 0, i32* %9, align 4
  %110 = getelementptr inbounds [1000 x i8], [1000 x i8]* %3, i64 0, i64 0
  %111 = call i64 @strlen(i8* %110) #4
  %112 = sub i64 %111, 1
  %113 = trunc i64 %112 to i32
  store i32 %113, i32* %7, align 4
  br label %114

114:                                              ; preds = %121, %109
  %115 = load i32, i32* %7, align 4
  %116 = sext i32 %115 to i64
  %117 = getelementptr inbounds [1000 x i32], [1000 x i32]* %5, i64 0, i64 %116
  %118 = load i32, i32* %117, align 4
  %119 = icmp eq i32 %118, 0
  br i1 %119, label %120, label %124

120:                                              ; preds = %114
  br label %121

121:                                              ; preds = %120
  %122 = load i32, i32* %7, align 4
  %123 = add nsw i32 %122, -1
  store i32 %123, i32* %7, align 4
  br label %114

124:                                              ; preds = %114
  br label %125

125:                                              ; preds = %134, %124
  %126 = load i32, i32* %7, align 4
  %127 = icmp sge i32 %126, 0
  br i1 %127, label %128, label %137

128:                                              ; preds = %125
  %129 = load i32, i32* %7, align 4
  %130 = sext i32 %129 to i64
  %131 = getelementptr inbounds [1000 x i32], [1000 x i32]* %5, i64 0, i64 %130
  %132 = load i32, i32* %131, align 4
  %133 = call i32 (i8*, ...) @printf(i8* getelementptr inbounds ([3 x i8], [3 x i8]* @.str, i64 0, i64 0), i32 %132)
  store i32 1, i32* %9, align 4
  br label %134

134:                                              ; preds = %128
  %135 = load i32, i32* %7, align 4
  %136 = add nsw i32 %135, -1
  store i32 %136, i32* %7, align 4
  br label %125

137:                                              ; preds = %125
  %138 = call i32 (i8*, ...) @printf(i8* getelementptr inbounds ([2 x i8], [2 x i8]* @.str.2, i64 0, i64 0))
  %139 = load i32, i32* %9, align 4
  %140 = icmp eq i32 %139, 0
  br i1 %140, label %141, label %146

141:                                              ; preds = %137
  %142 = load i32, i32* %7, align 4
  %143 = icmp eq i32 %142, -1
  br i1 %143, label %144, label %146

144:                                              ; preds = %141
  %145 = call i32 (i8*, ...) @printf(i8* getelementptr inbounds ([3 x i8], [3 x i8]* @.str, i64 0, i64 0), i32 0)
  br label %146

146:                                              ; preds = %144, %141, %137
  br label %11

147:                                              ; preds = %11
  ret i32 0
}